; Function Attrs: mustprogress uwtable
define hidden void @_ZN7testing8internal35DefaultGlobalTestPartResultReporter20ReportTestPartResultERKNS_14TestPartResultE(ptr noundef nonnull readonly align 8 captures(none) dereferenceable(16) %0, ptr noundef nonnull align 8 dereferenceable(112) %1) unnamed_addr #3 align 2 {
  %3 = getelementptr inbounds nuw i8, ptr %0, i64 8
  %4 = load ptr, ptr %3, align 8
  %5 = getelementptr inbounds nuw i8, ptr %4, i64 216
  %6 = load ptr, ptr %5, align 8
  %.not.i = icmp eq ptr %6, null
  %7 = getelementptr inbounds nuw i8, ptr %6, i64 104
  %8 = getelementptr inbounds nuw i8, ptr %4, i64 224
  %9 = select i1 %.not.i, ptr %8, ptr %7
  %10 = getelementptr inbounds nuw i8, ptr %9, i64 16
  %11 = load ptr, ptr %10, align 8
  %12 = getelementptr inbounds nuw i8, ptr %9, i64 24
  %13 = load ptr, ptr %12, align 8
  %.not.i.i = icmp eq ptr %11, %13
  br i1 %.not.i.i, label %17, label %14

14:                                               ; preds = %2
  tail call void @_ZN7testing14TestPartResultC2ERKS0_(ptr noundef nonnull align 8 dereferenceable(112) %11, ptr noundef nonnull align 8 dereferenceable(112) %1)
  %15 = load ptr, ptr %10, align 8
  %16 = getelementptr inbounds nuw i8, ptr %15, i64 112
  store ptr %16, ptr %10, align 8
  br label %_ZN7testing10TestResult17AddTestPartResultERKNS_14TestPartResultE.exit

17:                                               ; preds = %2
  %18 = getelementptr inbounds nuw i8, ptr %9, i64 8
  tail call void @_ZNSt6vectorIN7testing14TestPartResultESaIS1_EE17_M_realloc_insertIJRKS1_EEEvN9__gnu_cxx17__normal_iteratorIPS1_S3_EEDpOT_(ptr noundef nonnull align 8 dereferenceable(24) %18, ptr %11, ptr noundef nonnull align 8 dereferenceable(112) %1)
  br label %_ZN7testing10TestResult17AddTestPartResultERKNS_14TestPartResultE.exit

_ZN7testing10TestResult17AddTestPartResultERKNS_14TestPartResultE.exit: ; preds = %14, %17
  %19 = load ptr, ptr %3, align 8
  %20 = getelementptr inbounds nuw i8, ptr %19, i64 296
  %21 = load ptr, ptr %20, align 8
  %22 = load ptr, ptr %21, align 8
  %23 = getelementptr inbounds nuw i8, ptr %22, i64 64
  %24 = load ptr, ptr %23, align 8
  tail call void %24(ptr noundef nonnull align 8 dereferenceable(8) %21, ptr noundef nonnull align 8 dereferenceable(112) %1)
  ret void
}